; Function Attrs: mustprogress nofree norecurse nosync nounwind willreturn memory(read, inaccessiblemem: none) uwtable
define noundef double @_ZNK8QuantLib23RangeAccrualPricerByBgm5driftEdddd(ptr nocapture noundef nonnull readonly align 8 dereferenceable(224) %this, double noundef %U, double noundef %lambdaS, double noundef %lambdaT, double noundef %correlation) local_unnamed_addr #18 align 2 {
entry:
  %startTime_ = getelementptr inbounds nuw i8, ptr %this, i64 16
  %0 = load double, ptr %startTime_, align 8, !tbaa !115
  %sub = fsub double %U, %0
  %accrualFactor_ = getelementptr inbounds nuw i8, ptr %this, i64 32
  %1 = load double, ptr %accrualFactor_, align 8, !tbaa !113
  %div = fdiv double %sub, %1
  %_M_finish.i.i = getelementptr inbounds nuw i8, ptr %this, i64 96
  %2 = load ptr, ptr %_M_finish.i.i, align 8, !tbaa !3
  %add.ptr.i.i = getelementptr inbounds i8, ptr %2, i64 -8
  %3 = load double, ptr %add.ptr.i.i, align 8, !tbaa !88
  %mul = fmul double %1, %div
  %mul6 = fmul double %mul, %3
  %4 = tail call double @llvm.fmuladd.f64(double %3, double %1, double 1.000000e+00)
  %div9 = fdiv double %mul6, %4
  %cmp = fcmp ogt double %0, 0.000000e+00
  br i1 %cmp, label %if.then, label %if.else

if.then:                                          ; preds = %entry
  %endTime_ = getelementptr inbounds nuw i8, ptr %this, i64 24
  %5 = load double, ptr %endTime_, align 8, !tbaa !116
  %mul18 = fmul double %lambdaS, %div
  %mul19 = fmul double %lambdaT, %mul18
  %mul10 = fmul double %lambdaT, %div
  %sub2 = fsub double %5, %U
  %div4 = fdiv double %sub2, %1
  %mul12 = fmul double %lambdaS, %div4
  %mul13 = fmul double %lambdaT, %mul12
  %mul14 = fmul double %correlation, %mul13
  %6 = tail call double @llvm.fmuladd.f64(double %mul10, double %lambdaT, double %mul14)
  %mul17 = fmul double %lambdaS, %mul12
  %7 = tail call double @llvm.fmuladd.f64(double %div9, double %6, double %mul17)
  %8 = tail call double @llvm.fmuladd.f64(double %mul19, double %correlation, double %7)
  br label %if.end

if.else:                                          ; preds = %entry
  %sub27 = fadd double %div9, -5.000000e-01
  %mul28 = fmul double %lambdaT, %sub27
  %mul29 = fmul double %lambdaT, %mul28
  br label %if.end

if.end:                                           ; preds = %if.else, %if.then
  %result.0 = phi double [ %8, %if.then ], [ %mul29, %if.else ]
  ret double %result.0
}